	.file	"3-12.c"
	.text
	.section	.rodata
.LC0:
	.string	"callee_int3:"
.LC1:
	.string	"\ta1 = %ld\n"
.LC2:
	.string	"\ta2 = %ld\n"
.LC3:
	.string	"\ta3 = %ld\n"
.LC4:
	.string	"\ta4 = %ld\n"
.LC5:
	.string	"\ta5 = %ld\n"
.LC6:
	.string	"\ta6 = %ld\n"
.LC7:
	.string	"\ta7 = %ld\n"
.LC8:
	.string	"\ta8 = %ld\n"
	.text
	.globl	callee_int3
	.type	callee_int3, @function
callee_int3:
.LFB0:
	.cfi_startproc
	endbr64
	pushq	%rbp
	.cfi_def_cfa_offset 16
	.cfi_offset 6, -16
	movq	%rsp, %rbp
	.cfi_def_cfa_register 6
	subq	$48, %rsp
	movq	%rdi, -8(%rbp)
	movq	%rsi, -16(%rbp)
	movq	%rdx, -24(%rbp)
	movq	%rcx, -32(%rbp)
	movq	%r8, -40(%rbp)
	movq	%r9, -48(%rbp)
	leaq	.LC0(%rip), %rax
	movq	%rax, %rdi
	call	puts@PLT
	movq	-8(%rbp), %rax
	movq	%rax, %rsi
	leaq	.LC1(%rip), %rax
	movq	%rax, %rdi
	movl	$0, %eax
	call	printf@PLT
	movq	-16(%rbp), %rax
	movq	%rax, %rsi
	leaq	.LC2(%rip), %rax
	movq	%rax, %rdi
	movl	$0, %eax
	call	printf@PLT
	movq	-24(%rbp), %rax
	movq	%rax, %rsi
	leaq	.LC3(%rip), %rax
	movq	%rax, %rdi
	movl	$0, %eax
	call	printf@PLT
	movq	-32(%rbp), %rax
	movq	%rax, %rsi
	leaq	.LC4(%rip), %rax
	movq	%rax, %rdi
	movl	$0, %eax
	call	printf@PLT
	movq	-40(%rbp), %rax
	movq	%rax, %rsi
	leaq	.LC5(%rip), %rax
	movq	%rax, %rdi
	movl	$0, %eax
	call	printf@PLT
	movq	-48(%rbp), %rax
	movq	%rax, %rsi
	leaq	.LC6(%rip), %rax
	movq	%rax, %rdi
	movl	$0, %eax
	call	printf@PLT
	movq	16(%rbp), %rsi
	leaq	.LC7(%rip), %rax
	movq	%rax, %rdi
	movl	$0, %eax
	call	printf@PLT
	movq	24(%rbp), %rax
	movq	%rax, %rsi
	leaq	.LC8(%rip), %rax
	movq	%rax, %rdi
	movl	$0, %eax
	call	printf@PLT
	movq	-8(%rbp), %rdx
	movq	-16(%rbp), %rax
	addq	%rax, %rdx
	movq	-24(%rbp), %rax
	addq	%rax, %rdx
	movq	-32(%rbp), %rax
	addq	%rax, %rdx
	movq	-40(%rbp), %rax
	addq	%rax, %rdx
	movq	-48(%rbp), %rax
	addq	%rax, %rdx
	movq	16(%rbp), %rax
	addq	%rax, %rdx
	movq	24(%rbp), %rax
	addq	%rdx, %rax
	leave
	.cfi_def_cfa 7, 8
	ret
	.cfi_endproc
.LFE0:
	.size	callee_int3, .-callee_int3
	.section	.rodata
.LC9:
	.string	"check_ret:"
.LC10:
	.string	"\tret = %ld\n"
	.text
	.globl	check_ret
	.type	check_ret, @function
check_ret:
.LFB1:
	.cfi_startproc
	endbr64
	pushq	%rbp
	.cfi_def_cfa_offset 16
	.cfi_offset 6, -16
	movq	%rsp, %rbp
	.cfi_def_cfa_register 6
	subq	$16, %rsp
	movq	%rdi, -8(%rbp)
	leaq	.LC9(%rip), %rax
	movq	%rax, %rdi
	call	puts@PLT
	movq	-8(%rbp), %rax
	movq	%rax, %rsi
	leaq	.LC10(%rip), %rax
	movq	%rax, %rdi
	movl	$0, %eax
	call	printf@PLT
	nop
	leave
	.cfi_def_cfa 7, 8
	ret
	.cfi_endproc
.LFE1:
	.size	check_ret, .-check_ret
	.globl	caller_int3
	.type	caller_int3, @function
caller_int3:
.LFB2:
	.cfi_startproc
	endbr64
	pushq	%rbp
	.cfi_def_cfa_offset 16
	.cfi_offset 6, -16
	movq	%rsp, %rbp
	.cfi_def_cfa_register 6
	subq	$16, %rsp
	pushq	$888
	pushq	$777
	movl	$666, %r9d
	movl	$555, %r8d
	movl	$444, %ecx
	movl	$333, %edx
	movl	$222, %esi
	movl	$111, %edi
	call	callee_int3
	addq	$16, %rsp
	movq	%rax, -8(%rbp)
	movq	-8(%rbp), %rax
	movq	%rax, %rdi
	call	check_ret
	nop
	leave
	.cfi_def_cfa 7, 8
	ret
	.cfi_endproc
.LFE2:
	.size	caller_int3, .-caller_int3
	.globl	main
	.type	main, @function
main:
.LFB3:
	.cfi_startproc
	endbr64
	pushq	%rbp
	.cfi_def_cfa_offset 16
	.cfi_offset 6, -16
	movq	%rsp, %rbp
	.cfi_def_cfa_register 6
	movl	$0, %eax
	call	caller_int3
	movl	$0, %eax
	popq	%rbp
	.cfi_def_cfa 7, 8
	ret
	.cfi_endproc
.LFE3:
	.size	main, .-main
	.ident	"GCC: (Ubuntu 11.3.0-1ubuntu1~22.04) 11.3.0"
	.section	.note.GNU-stack,"",@progbits
	.section	.note.gnu.property,"a"
	.align 8
	.long	1f - 0f
	.long	4f - 1f
	.long	5
0:
	.string	"GNU"
1:
	.align 8
	.long	0xc0000002
	.long	3f - 2f
2:
	.long	0x3
3:
	.align 8
4:
